target datalayout = "e-m:e-p270:32:32-p271:32:32-p272:64:64-i64:64-i128:128-f80:128-n8:16:32:64-S128"
target triple = "x86_64-pc-linux-gnu"

@g_tree = internal global ptr null, align 8

; Function Attrs: null_pointer_is_valid sspstrong uwtable
define hidden void @bssmap_old_bss_to_new_bss_info(ptr noundef %0, ptr noundef %1, ptr noundef %2) #1 {
  %4 = alloca ptr, align 8
  %5 = alloca ptr, align 8
  %6 = alloca ptr, align 8
  %7 = alloca i16, align 2
  %8 = alloca i32, align 4
  store ptr %0, ptr %4, align 8
  store ptr %1, ptr %5, align 8
  store ptr %2, ptr %6, align 8
  call void @llvm.lifetime.start.p0(i64 2, ptr %7) #5
  %9 = load ptr, ptr %5, align 8
  %10 = icmp ne ptr %9, null
  br i1 %10, label %12, label %11

11:                                               ; preds = %3
  store i32 1, ptr %8, align 4
  br label %23

12:                                               ; preds = %3
  %13 = load ptr, ptr %5, align 8
  store ptr %13, ptr @g_tree, align 8
  %14 = load ptr, ptr %4, align 8
  %15 = call i32 @tvb_reported_length(ptr noundef %14)
  %16 = trunc i32 %15 to i16
  store i16 %16, ptr %7, align 2
  %17 = load ptr, ptr %4, align 8
  %18 = load ptr, ptr %5, align 8
  %19 = load ptr, ptr %6, align 8
  %20 = load i16, ptr %7, align 2
  %21 = zext i16 %20 to i32
  %22 = call zeroext i16 @be_field_element_dissect(ptr noundef %17, ptr noundef %18, ptr noundef %19, i32 noundef 0, i32 noundef %21, ptr noundef null, i32 noundef 0)
  store ptr null, ptr @g_tree, align 8
  store i32 0, ptr %8, align 4
  br label %23

23:                                               ; preds = %12, %11
  call void @llvm.lifetime.end.p0(i64 2, ptr %7) #5
  %24 = load i32, ptr %8, align 4
  switch i32 %24, label %26 [
    i32 0, label %25
    i32 1, label %25
  ]

25:                                               ; preds = %23, %23
  ret void

26:                                               ; preds = %23
  unreachable
}