; Function Attrs: null_pointer_is_valid sspstrong uwtable
define hidden void @bssmap_old_bss_to_new_bss_info(ptr noundef %0, ptr noundef %1, ptr noundef %2) local_unnamed_addr #1 {
  %.not = icmp eq ptr %1, null
  br i1 %.not, label %8, label %4

4:                                                ; preds = %3
  store ptr %1, ptr @g_tree, align 8
  %5 = tail call i32 @tvb_reported_length(ptr noundef %0)
  %6 = and i32 %5, 65535
  %7 = tail call zeroext i16 @be_field_element_dissect(ptr noundef %0, ptr noundef nonnull %1, ptr noundef %2, i32 noundef 0, i32 noundef %6, ptr poison, i32 poison)
  store ptr null, ptr @g_tree, align 8
  br label %8

8:                                                ; preds = %3, %4
  ret void
}